; Function Attrs: nounwind uwtable
define internal fastcc void @read_consume(ptr noundef %0) unnamed_addr #0 {
  %2 = getelementptr inbounds nuw i8, ptr %0, i64 2072
  %3 = load ptr, ptr %2, align 8, !tbaa !41
  %4 = load ptr, ptr %3, align 8, !tbaa !55
  %5 = getelementptr inbounds nuw i8, ptr %4, i64 288
  %6 = load i64, ptr %5, align 8, !tbaa !74
  %.not = icmp eq i64 %6, 0
  br i1 %.not, label %13, label %7

7:                                                ; preds = %1
  %8 = tail call i64 @__archive_read_consume(ptr noundef nonnull %0, i64 noundef %6) #17
  %9 = load i64, ptr %5, align 8, !tbaa !74
  %10 = getelementptr inbounds nuw i8, ptr %4, i64 248
  %11 = load i64, ptr %10, align 8, !tbaa !63
  %12 = add i64 %11, %9
  store i64 %12, ptr %10, align 8, !tbaa !63
  store i64 0, ptr %5, align 8, !tbaa !74
  br label %13

13:                                               ; preds = %7, %1
  ret void
}